; ModuleID = '44/434.c'
source_filename = "44/434.c"
target datalayout = "e-m:e-p270:32:32-p271:32:32-p272:64:64-i64:64-f80:128-n8:16:32:64-S128"
target triple = "x86_64-pc-linux-gnu"

@.str = private unnamed_addr constant [3 x i8] c"%d\00", align 1
@.str.1 = private unnamed_addr constant [4 x i8] c"%d\0A\00", align 1

; Function Attrs: noinline nounwind uwtable
define dso_local i32 @f(i32 %0) #0 {
  %2 = alloca i32, align 4
  %3 = alloca i32, align 4
  %4 = alloca i32, align 4
  %5 = alloca i32, align 4
  store i32 %0, i32* %2, align 4
  store i32 0, i32* %4, align 4
  store i32 10, i32* %3, align 4
  br label %6

6:                                                ; preds = %13, %1
  %7 = load i32, i32* %2, align 4
  %8 = load i32, i32* %3, align 4
  %9 = sdiv i32 %7, %8
  %10 = icmp eq i32 %9, 0
  br i1 %10, label %11, label %12

11:                                               ; preds = %6
  br label %16

12:                                               ; preds = %6
  br label %13

13:                                               ; preds = %12
  %14 = load i32, i32* %3, align 4
  %15 = mul nsw i32 %14, 10
  store i32 %15, i32* %3, align 4
  br label %6

16:                                               ; preds = %11
  %17 = load i32, i32* %3, align 4
  %18 = sdiv i32 %17, 10
  store i32 %18, i32* %5, align 4
  br label %19

19:                                               ; preds = %36, %16
  %20 = load i32, i32* %5, align 4
  %21 = icmp sgt i32 %20, 0
  br i1 %21, label %22, label %39

22:                                               ; preds = %19
  %23 = load i32, i32* %2, align 4
  %24 = load i32, i32* %5, align 4
  %25 = sdiv i32 %23, %24
  %26 = load i32, i32* %3, align 4
  %27 = load i32, i32* %5, align 4
  %28 = sdiv i32 %26, %27
  %29 = sdiv i32 %28, 10
  %30 = mul nsw i32 %25, %29
  %31 = load i32, i32* %4, align 4
  %32 = add nsw i32 %31, %30
  store i32 %32, i32* %4, align 4
  %33 = load i32, i32* %2, align 4
  %34 = load i32, i32* %5, align 4
  %35 = srem i32 %33, %34
  store i32 %35, i32* %2, align 4
  br label %36

36:                                               ; preds = %22
  %37 = load i32, i32* %5, align 4
  %38 = sdiv i32 %37, 10
  store i32 %38, i32* %5, align 4
  br label %19

39:                                               ; preds = %19
  %40 = load i32, i32* %4, align 4
  ret i32 %40
}

; Function Attrs: noinline nounwind uwtable
define dso_local i32 @main() #0 {
  %1 = alloca i32, align 4
  %2 = alloca [6 x i32], align 16
  %3 = alloca i32, align 4
  %4 = alloca i32, align 4
  store i32 0, i32* %1, align 4
  store i32 0, i32* %3, align 4
  br label %5

5:                                                ; preds = %13, %0
  %6 = load i32, i32* %3, align 4
  %7 = icmp slt i32 %6, 6
  br i1 %7, label %8, label %16

8:                                                ; preds = %5
  %9 = load i32, i32* %3, align 4
  %10 = sext i32 %9 to i64
  %11 = getelementptr inbounds [6 x i32], [6 x i32]* %2, i64 0, i64 %10
  %12 = call i32 (i8*, ...) @__isoc99_scanf(i8* getelementptr inbounds ([3 x i8], [3 x i8]* @.str, i64 0, i64 0), i32* %11)
  br label %13

13:                                               ; preds = %8
  %14 = load i32, i32* %3, align 4
  %15 = add nsw i32 %14, 1
  store i32 %15, i32* %3, align 4
  br label %5

16:                                               ; preds = %5
  store i32 0, i32* %4, align 4
  br label %17

17:                                               ; preds = %27, %16
  %18 = load i32, i32* %4, align 4
  %19 = icmp slt i32 %18, 6
  br i1 %19, label %20, label %30

20:                                               ; preds = %17
  %21 = load i32, i32* %4, align 4
  %22 = sext i32 %21 to i64
  %23 = getelementptr inbounds [6 x i32], [6 x i32]* %2, i64 0, i64 %22
  %24 = load i32, i32* %23, align 4
  %25 = call i32 @f(i32 %24)
  %26 = call i32 (i8*, ...) @printf(i8* getelementptr inbounds ([4 x i8], [4 x i8]* @.str.1, i64 0, i64 0), i32 %25)
  br label %27

27:                                               ; preds = %20
  %28 = load i32, i32* %4, align 4
  %29 = add nsw i32 %28, 1
  store i32 %29, i32* %4, align 4
  br label %17

30:                                               ; preds = %17
  ret i32 0
}

declare dso_local i32 @__isoc99_scanf(i8*, ...) #1

declare dso_local i32 @printf(i8*, ...) #1


!llvm.module.flags = !{!0}
!llvm.ident = !{!1}

!0 = !{i32 1, !"wchar_size", i32 4}
!1 = !{!"clang version 10.0.0-4ubuntu1 "}
